target datalayout = "e-m:e-p270:32:32-p271:32:32-p272:64:64-i64:64-i128:128-f80:128-n8:16:32:64-S128"
target triple = "x86_64-pc-linux-gnu"

%struct.IDAMemRec = type { ptr, double, ptr, ptr, i32, double, double, ptr, i32, i32, ptr, ptr, i32, i32, i32, ptr, ptr, i32, i32, double, double, ptr, i32, i32, i32, i32, ptr, ptr, i32, ptr, ptr, ptr, i32, double, i32, i32, double, ptr, ptr, ptr, i32, ptr, ptr, i32, i32, i32, double, ptr, ptr, ptr, [6 x ptr], [6 x double], [6 x double], [6 x double], [6 x double], [6 x double], ptr, ptr, ptr, ptr, ptr, ptr, ptr, ptr, ptr, ptr, ptr, ptr, ptr, ptr, ptr, ptr, ptr, [6 x ptr], ptr, ptr, ptr, ptr, [6 x ptr], ptr, ptr, ptr, ptr, ptr, ptr, ptr, ptr, ptr, ptr, ptr, ptr, ptr, ptr, ptr, ptr, [6 x ptr], ptr, ptr, ptr, ptr, ptr, double, ptr, ptr, i32, i32, i32, i32, i32, i32, i32, i32, double, double, double, i32, double, i32, i32, i32, i32, i32, double, double, double, double, double, double, double, double, double, double, double, double, double, double, double, double, double, i32, i32, i32, i32, i64, double, double, double, double, double, double, double, double, double, i64, i64, i64, i64, i64, i64, i64, i64, i64, i64, i64, i64, i64, i64, i64, i64, i64, i64, i64, i64, i64, i64, i64, i64, i64, i64, double, i32, i32, i32, i32, i32, i32, i32, i32, i32, i32, i32, i32, i32, ptr, i32, ptr, i32, ptr, i32, ptr, ptr, ptr, ptr, ptr, ptr, i32, i32, ptr, ptr, ptr, ptr, ptr, ptr, ptr, double, i32, i32, ptr, i32, ptr, ptr, double, double, double, ptr, ptr, ptr, double, double, i32, i32, i64, ptr, i32, ptr, [5 x double], ptr, ptr, i32, ptr, i32 }
%struct.__va_list_tag = type { i32, i32, ptr, ptr }
%struct.SUNContext_ = type { ptr, i32, ptr, i32, i32, ptr, i32 }
%struct.SUNErrHandler_ = type { ptr, ptr, ptr }

@.str.85 = private unnamed_addr constant [6 x i8] c"%s:%d\00", align 1

; Function Attrs: inlinehint nounwind uwtable
define internal void @SUNHandleErrWithMsg(i32 noundef %0, ptr noundef %1, ptr noundef %2, ptr noundef %3, i32 noundef %4, ptr noundef %5) #8 {
  %7 = alloca i32, align 4
  %8 = alloca ptr, align 8
  %9 = alloca ptr, align 8
  %10 = alloca ptr, align 8
  %11 = alloca i32, align 4
  %12 = alloca ptr, align 8
  %13 = alloca ptr, align 8
  store i32 %0, ptr %7, align 4, !tbaa !114
  store ptr %1, ptr %8, align 8, !tbaa !115
  store ptr %2, ptr %9, align 8, !tbaa !115
  store ptr %3, ptr %10, align 8, !tbaa !115
  store i32 %4, ptr %11, align 4, !tbaa !114
  store ptr %5, ptr %12, align 8, !tbaa !3
  %14 = load ptr, ptr %12, align 8, !tbaa !3
  %15 = icmp ne ptr %14, null
  br i1 %15, label %22, label %16

16:                                               ; preds = %6
  %17 = load i32, ptr %7, align 4, !tbaa !114
  %18 = load ptr, ptr %8, align 8, !tbaa !115
  %19 = load ptr, ptr %9, align 8, !tbaa !115
  %20 = load ptr, ptr %10, align 8, !tbaa !115
  %21 = load i32, ptr %11, align 4, !tbaa !114
  call void (i32, ptr, ptr, ptr, i32, ...) @SUNGlobalFallbackErrHandler(i32 noundef %17, ptr noundef %18, ptr noundef %19, ptr noundef %20, i32 noundef %21)
  br label %22

22:                                               ; preds = %16, %6
  %23 = load i32, ptr %11, align 4, !tbaa !114
  %24 = load ptr, ptr %12, align 8, !tbaa !3
  %25 = getelementptr inbounds nuw %struct.SUNContext_, ptr %24, i32 0, i32 4
  store i32 %23, ptr %25, align 4, !tbaa !255
  call void @llvm.lifetime.start.p0(i64 8, ptr %13) #10
  %26 = load ptr, ptr %12, align 8, !tbaa !3
  %27 = getelementptr inbounds nuw %struct.SUNContext_, ptr %26, i32 0, i32 5
  %28 = load ptr, ptr %27, align 8, !tbaa !256
  store ptr %28, ptr %13, align 8, !tbaa !257
  br label %29

29:                                               ; preds = %32, %22
  %30 = load ptr, ptr %13, align 8, !tbaa !257
  %31 = icmp ne ptr %30, null
  br i1 %31, label %32, label %48

32:                                               ; preds = %29
  %33 = load ptr, ptr %13, align 8, !tbaa !257
  %34 = getelementptr inbounds nuw %struct.SUNErrHandler_, ptr %33, i32 0, i32 1
  %35 = load ptr, ptr %34, align 8, !tbaa !258
  %36 = load i32, ptr %7, align 4, !tbaa !114
  %37 = load ptr, ptr %8, align 8, !tbaa !115
  %38 = load ptr, ptr %9, align 8, !tbaa !115
  %39 = load ptr, ptr %10, align 8, !tbaa !115
  %40 = load i32, ptr %11, align 4, !tbaa !114
  %41 = load ptr, ptr %13, align 8, !tbaa !257
  %42 = getelementptr inbounds nuw %struct.SUNErrHandler_, ptr %41, i32 0, i32 2
  %43 = load ptr, ptr %42, align 8, !tbaa !260
  %44 = load ptr, ptr %12, align 8, !tbaa !3
  call void %35(i32 noundef %36, ptr noundef %37, ptr noundef %38, ptr noundef %39, i32 noundef %40, ptr noundef %43, ptr noundef %44)
  %45 = load ptr, ptr %13, align 8, !tbaa !257
  %46 = getelementptr inbounds nuw %struct.SUNErrHandler_, ptr %45, i32 0, i32 0
  %47 = load ptr, ptr %46, align 8, !tbaa !261
  store ptr %47, ptr %13, align 8, !tbaa !257
  br label %29

48:                                               ; preds = %29
  call void @llvm.lifetime.end.p0(i64 8, ptr %13) #10
  ret void
}

; Function Attrs: inlinehint nounwind uwtable
define internal ptr @sunCombineFileAndLine(i32 noundef %0, ptr noundef %1) #8 {
  %3 = alloca i32, align 4
  %4 = alloca ptr, align 8
  %5 = alloca i64, align 8
  %6 = alloca ptr, align 8
  store i32 %0, ptr %3, align 4, !tbaa !114
  store ptr %1, ptr %4, align 8, !tbaa !115
  call void @llvm.lifetime.start.p0(i64 8, ptr %5) #10
  %7 = load ptr, ptr %4, align 8, !tbaa !115
  %8 = call i64 @strlen(ptr noundef %7) #12
  %9 = add i64 %8, 6
  store i64 %9, ptr %5, align 8, !tbaa !117
  call void @llvm.lifetime.start.p0(i64 8, ptr %6) #10
  %10 = load i64, ptr %5, align 8, !tbaa !117
  %11 = mul i64 %10, 1
  %12 = call noalias ptr @malloc(i64 noundef %11) #11
  store ptr %12, ptr %6, align 8, !tbaa !115
  %13 = load ptr, ptr %6, align 8, !tbaa !115
  %14 = load i64, ptr %5, align 8, !tbaa !117
  %15 = load ptr, ptr %4, align 8, !tbaa !115
  %16 = load i32, ptr %3, align 4, !tbaa !114
  %17 = call i32 (ptr, i64, ptr, ...) @snprintf(ptr noundef %13, i64 noundef %14, ptr noundef @.str.85, ptr noundef %15, i32 noundef %16) #10
  %18 = load ptr, ptr %6, align 8, !tbaa !115
  call void @llvm.lifetime.end.p0(i64 8, ptr %6) #10
  call void @llvm.lifetime.end.p0(i64 8, ptr %5) #10
  ret ptr %18
}

; Function Attrs: nounwind uwtable
define void @IDAProcessError(ptr noundef %0, i32 noundef %1, i32 noundef %2, ptr noundef %3, ptr noundef %4, ptr noundef %5, ...) #0 {
  %7 = alloca ptr, align 8
  %8 = alloca i32, align 4
  %9 = alloca i32, align 4
  %10 = alloca ptr, align 8
  %11 = alloca ptr, align 8
  %12 = alloca ptr, align 8
  %13 = alloca [1 x %struct.__va_list_tag], align 16
  %14 = alloca i64, align 8
  %15 = alloca ptr, align 8
  %16 = alloca ptr, align 8
  store ptr %0, ptr %7, align 8, !tbaa !8
  store i32 %1, ptr %8, align 4, !tbaa !114
  store i32 %2, ptr %9, align 4, !tbaa !114
  store ptr %3, ptr %10, align 8, !tbaa !115
  store ptr %4, ptr %11, align 8, !tbaa !115
  store ptr %5, ptr %12, align 8, !tbaa !115
  call void @llvm.lifetime.start.p0(i64 24, ptr %13) #10
  %17 = getelementptr inbounds [1 x %struct.__va_list_tag], ptr %13, i64 0, i64 0
  call void @llvm.va_start.p0(ptr %17)
  call void @llvm.lifetime.start.p0(i64 8, ptr %14) #10
  store i64 1, ptr %14, align 8, !tbaa !117
  %18 = load ptr, ptr %12, align 8, !tbaa !115
  %19 = icmp ne ptr %18, null
  br i1 %19, label %20, label %27

20:                                               ; preds = %6
  %21 = load ptr, ptr %12, align 8, !tbaa !115
  %22 = getelementptr inbounds [1 x %struct.__va_list_tag], ptr %13, i64 0, i64 0
  %23 = call i32 @vsnprintf(ptr noundef null, i64 noundef 0, ptr noundef %21, ptr noundef %22) #10
  %24 = sext i32 %23 to i64
  %25 = load i64, ptr %14, align 8, !tbaa !117
  %26 = add i64 %25, %24
  store i64 %26, ptr %14, align 8, !tbaa !117
  br label %27

27:                                               ; preds = %20, %6
  %28 = getelementptr inbounds [1 x %struct.__va_list_tag], ptr %13, i64 0, i64 0
  call void @llvm.va_end.p0(ptr %28)
  call void @llvm.lifetime.start.p0(i64 8, ptr %15) #10
  %29 = load i64, ptr %14, align 8, !tbaa !117
  %30 = call noalias ptr @malloc(i64 noundef %29) #11
  store ptr %30, ptr %15, align 8, !tbaa !115
  %31 = getelementptr inbounds [1 x %struct.__va_list_tag], ptr %13, i64 0, i64 0
  call void @llvm.va_start.p0(ptr %31)
  %32 = load ptr, ptr %15, align 8, !tbaa !115
  %33 = load i64, ptr %14, align 8, !tbaa !117
  %34 = load ptr, ptr %12, align 8, !tbaa !115
  %35 = getelementptr inbounds [1 x %struct.__va_list_tag], ptr %13, i64 0, i64 0
  %36 = call i32 @vsnprintf(ptr noundef %32, i64 noundef %33, ptr noundef %34, ptr noundef %35) #10
  %37 = getelementptr inbounds [1 x %struct.__va_list_tag], ptr %13, i64 0, i64 0
  call void @llvm.va_end.p0(ptr %37)
  br label %38

38:                                               ; preds = %27
  %39 = load ptr, ptr %7, align 8, !tbaa !8
  %40 = icmp eq ptr %39, null
  br i1 %40, label %41, label %47

41:                                               ; preds = %38
  %42 = load i32, ptr %9, align 4, !tbaa !114
  %43 = load ptr, ptr %10, align 8, !tbaa !115
  %44 = load ptr, ptr %11, align 8, !tbaa !115
  %45 = load ptr, ptr %15, align 8, !tbaa !115
  %46 = load i32, ptr %8, align 4, !tbaa !114
  call void (i32, ptr, ptr, ptr, i32, ...) @SUNGlobalFallbackErrHandler(i32 noundef %42, ptr noundef %43, ptr noundef %44, ptr noundef %45, i32 noundef %46)
  br label %78

47:                                               ; preds = %38
  %48 = load i32, ptr %8, align 4, !tbaa !114
  %49 = icmp eq i32 %48, 99
  br i1 %49, label %50, label %64

50:                                               ; preds = %47
  call void @llvm.lifetime.start.p0(i64 8, ptr %16) #10
  %51 = load i32, ptr %9, align 4, !tbaa !114
  %52 = load ptr, ptr %11, align 8, !tbaa !115
  %53 = call ptr @sunCombineFileAndLine(i32 noundef %51, ptr noundef %52)
  store ptr %53, ptr %16, align 8, !tbaa !115
  %54 = load ptr, ptr %7, align 8, !tbaa !8
  %55 = getelementptr inbounds nuw %struct.IDAMemRec, ptr %54, i32 0, i32 0
  %56 = load ptr, ptr %55, align 8, !tbaa !10
  %57 = getelementptr inbounds nuw %struct.SUNContext_, ptr %56, i32 0, i32 2
  %58 = load ptr, ptr %57, align 8, !tbaa !118
  %59 = load ptr, ptr %16, align 8, !tbaa !115
  %60 = load ptr, ptr %10, align 8, !tbaa !115
  %61 = load ptr, ptr %15, align 8, !tbaa !115
  %62 = call i32 (ptr, i32, ptr, ptr, ptr, ...) @SUNLogger_QueueMsg(ptr noundef %58, i32 noundef 2, ptr noundef %59, ptr noundef %60, ptr noundef %61)
  %63 = load ptr, ptr %16, align 8, !tbaa !115
  call void @free(ptr noundef %63) #10
  call void @llvm.lifetime.end.p0(i64 8, ptr %16) #10
  br label %78

64:                                               ; preds = %47
  %65 = load i32, ptr %9, align 4, !tbaa !114
  %66 = load ptr, ptr %10, align 8, !tbaa !115
  %67 = load ptr, ptr %11, align 8, !tbaa !115
  %68 = load ptr, ptr %15, align 8, !tbaa !115
  %69 = load i32, ptr %8, align 4, !tbaa !114
  %70 = load ptr, ptr %7, align 8, !tbaa !8
  %71 = getelementptr inbounds nuw %struct.IDAMemRec, ptr %70, i32 0, i32 0
  %72 = load ptr, ptr %71, align 8, !tbaa !10
  call void @SUNHandleErrWithMsg(i32 noundef %65, ptr noundef %66, ptr noundef %67, ptr noundef %68, i32 noundef %69, ptr noundef %72)
  %73 = load ptr, ptr %7, align 8, !tbaa !8
  %74 = getelementptr inbounds nuw %struct.IDAMemRec, ptr %73, i32 0, i32 0
  %75 = load ptr, ptr %74, align 8, !tbaa !10
  %76 = call i32 @SUNContext_GetLastError(ptr noundef %75)
  br label %77

77:                                               ; preds = %64
  br label %78

78:                                               ; preds = %77, %50, %41
  %79 = load ptr, ptr %15, align 8, !tbaa !115
  call void @free(ptr noundef %79) #10
  call void @llvm.lifetime.end.p0(i64 8, ptr %15) #10
  call void @llvm.lifetime.end.p0(i64 8, ptr %14) #10
  call void @llvm.lifetime.end.p0(i64 24, ptr %13) #10
  ret void
}